target datalayout = "e-m:e-p270:32:32-p271:32:32-p272:64:64-i64:64-i128:128-f80:128-n8:16:32:64-S128"
target triple = "x86_64-pc-linux-gnu"

%struct.conf_value_st = type { ptr, ptr, ptr }
%struct.NAME_CONSTRAINTS_st = type { ptr, ptr }
%struct.GENERAL_SUBTREE_st = type { ptr, ptr, ptr }

@GENERAL_SUBTREE_it = hidden constant { i8, [7 x i8], i64, ptr, i64, ptr, i64, ptr } { i8 1, [7 x i8] zeroinitializer, i64 16, ptr @GENERAL_SUBTREE_seq_tt, i64 3, ptr null, i64 24, ptr @.str }, align 8
@NAME_CONSTRAINTS_it = hidden constant { i8, [7 x i8], i64, ptr, i64, ptr, i64, ptr } { i8 1, [7 x i8] zeroinitializer, i64 16, ptr @NAME_CONSTRAINTS_seq_tt, i64 2, ptr null, i64 16, ptr @.str.1 }, align 8
@.str.8 = private unnamed_addr constant [10 x i8] c"permitted\00", align 1
@.str.9 = private unnamed_addr constant [9 x i8] c"excluded\00", align 1
@.str.10 = private unnamed_addr constant [128 x i8] c"generated/home/dtcxzyw/WorkSpace/Projects/compilers/llvm-opt-benchmark/bench/libquic/libquic/boringssl/crypto/x509v3/v3_ncons.c\00", align 1

; Function Attrs: nounwind uwtable
define hidden void @GENERAL_SUBTREE_free(ptr noundef %0) #0 {
  %2 = alloca ptr, align 8
  store ptr %0, ptr %2, align 8, !tbaa !19
  %3 = load ptr, ptr %2, align 8, !tbaa !19
  call void @ASN1_item_free(ptr noundef %3, ptr noundef @GENERAL_SUBTREE_it)
  ret void
}

; Function Attrs: nounwind uwtable
define hidden void @NAME_CONSTRAINTS_free(ptr noundef %0) #0 {
  %2 = alloca ptr, align 8
  store ptr %0, ptr %2, align 8, !tbaa !17
  %3 = load ptr, ptr %2, align 8, !tbaa !17
  call void @ASN1_item_free(ptr noundef %3, ptr noundef @NAME_CONSTRAINTS_it)
  ret void
}

; Function Attrs: nounwind uwtable
define hidden ptr @GENERAL_SUBTREE_new() #0 {
  %1 = call ptr @ASN1_item_new(ptr noundef @GENERAL_SUBTREE_it)
  ret ptr %1
}

; Function Attrs: nounwind uwtable
define hidden ptr @NAME_CONSTRAINTS_new() #0 {
  %1 = call ptr @ASN1_item_new(ptr noundef @NAME_CONSTRAINTS_it)
  ret ptr %1
}

; Function Attrs: nounwind uwtable
define internal ptr @v2i_NAME_CONSTRAINTS(ptr noundef %0, ptr noundef %1, ptr noundef %2) #0 {
  %4 = alloca ptr, align 8
  %5 = alloca ptr, align 8
  %6 = alloca ptr, align 8
  %7 = alloca ptr, align 8
  %8 = alloca i64, align 8
  %9 = alloca %struct.conf_value_st, align 8
  %10 = alloca ptr, align 8
  %11 = alloca ptr, align 8
  %12 = alloca ptr, align 8
  %13 = alloca ptr, align 8
  %14 = alloca i32, align 4
  store ptr %0, ptr %5, align 8, !tbaa !6
  store ptr %1, ptr %6, align 8, !tbaa !11
  store ptr %2, ptr %7, align 8, !tbaa !13
  call void @llvm.lifetime.start.p0(i64 8, ptr %8) #4
  call void @llvm.lifetime.start.p0(i64 24, ptr %9) #4
  call void @llvm.lifetime.start.p0(i64 8, ptr %10) #4
  call void @llvm.lifetime.start.p0(i64 8, ptr %11) #4
  store ptr null, ptr %11, align 8, !tbaa !15
  call void @llvm.lifetime.start.p0(i64 8, ptr %12) #4
  store ptr null, ptr %12, align 8, !tbaa !17
  call void @llvm.lifetime.start.p0(i64 8, ptr %13) #4
  store ptr null, ptr %13, align 8, !tbaa !19
  %15 = call ptr @NAME_CONSTRAINTS_new()
  store ptr %15, ptr %12, align 8, !tbaa !17
  %16 = load ptr, ptr %12, align 8, !tbaa !17
  %17 = icmp ne ptr %16, null
  br i1 %17, label %19, label %18

18:                                               ; preds = %3
  br label %112

19:                                               ; preds = %3
  store i64 0, ptr %8, align 8, !tbaa !21
  br label %20

20:                                               ; preds = %107, %19
  %21 = load i64, ptr %8, align 8, !tbaa !21
  %22 = load ptr, ptr %7, align 8, !tbaa !13
  %23 = call i64 @sk_num(ptr noundef %22)
  %24 = icmp ult i64 %21, %23
  br i1 %24, label %25, label %110

25:                                               ; preds = %20
  %26 = load ptr, ptr %7, align 8, !tbaa !13
  %27 = load i64, ptr %8, align 8, !tbaa !21
  %28 = call ptr @sk_value(ptr noundef %26, i64 noundef %27)
  store ptr %28, ptr %10, align 8, !tbaa !23
  %29 = load ptr, ptr %10, align 8, !tbaa !23
  %30 = getelementptr inbounds nuw %struct.conf_value_st, ptr %29, i32 0, i32 1
  %31 = load ptr, ptr %30, align 8, !tbaa !25
  %32 = call i32 @strncmp(ptr noundef %31, ptr noundef @.str.8, i64 noundef 9) #5
  %33 = icmp ne i32 %32, 0
  br i1 %33, label %50, label %34

34:                                               ; preds = %25
  %35 = load ptr, ptr %10, align 8, !tbaa !23
  %36 = getelementptr inbounds nuw %struct.conf_value_st, ptr %35, i32 0, i32 1
  %37 = load ptr, ptr %36, align 8, !tbaa !25
  %38 = getelementptr inbounds i8, ptr %37, i64 9
  %39 = load i8, ptr %38, align 1, !tbaa !28
  %40 = sext i8 %39 to i32
  %41 = icmp ne i32 %40, 0
  br i1 %41, label %42, label %50

42:                                               ; preds = %34
  %43 = load ptr, ptr %12, align 8, !tbaa !17
  %44 = getelementptr inbounds nuw %struct.NAME_CONSTRAINTS_st, ptr %43, i32 0, i32 0
  store ptr %44, ptr %11, align 8, !tbaa !15
  %45 = load ptr, ptr %10, align 8, !tbaa !23
  %46 = getelementptr inbounds nuw %struct.conf_value_st, ptr %45, i32 0, i32 1
  %47 = load ptr, ptr %46, align 8, !tbaa !25
  %48 = getelementptr inbounds i8, ptr %47, i64 10
  %49 = getelementptr inbounds nuw %struct.conf_value_st, ptr %9, i32 0, i32 1
  store ptr %48, ptr %49, align 8, !tbaa !25
  br label %74

50:                                               ; preds = %34, %25
  %51 = load ptr, ptr %10, align 8, !tbaa !23
  %52 = getelementptr inbounds nuw %struct.conf_value_st, ptr %51, i32 0, i32 1
  %53 = load ptr, ptr %52, align 8, !tbaa !25
  %54 = call i32 @strncmp(ptr noundef %53, ptr noundef @.str.9, i64 noundef 8) #5
  %55 = icmp ne i32 %54, 0
  br i1 %55, label %72, label %56

56:                                               ; preds = %50
  %57 = load ptr, ptr %10, align 8, !tbaa !23
  %58 = getelementptr inbounds nuw %struct.conf_value_st, ptr %57, i32 0, i32 1
  %59 = load ptr, ptr %58, align 8, !tbaa !25
  %60 = getelementptr inbounds i8, ptr %59, i64 8
  %61 = load i8, ptr %60, align 1, !tbaa !28
  %62 = sext i8 %61 to i32
  %63 = icmp ne i32 %62, 0
  br i1 %63, label %64, label %72

64:                                               ; preds = %56
  %65 = load ptr, ptr %12, align 8, !tbaa !17
  %66 = getelementptr inbounds nuw %struct.NAME_CONSTRAINTS_st, ptr %65, i32 0, i32 1
  store ptr %66, ptr %11, align 8, !tbaa !15
  %67 = load ptr, ptr %10, align 8, !tbaa !23
  %68 = getelementptr inbounds nuw %struct.conf_value_st, ptr %67, i32 0, i32 1
  %69 = load ptr, ptr %68, align 8, !tbaa !25
  %70 = getelementptr inbounds i8, ptr %69, i64 9
  %71 = getelementptr inbounds nuw %struct.conf_value_st, ptr %9, i32 0, i32 1
  store ptr %70, ptr %71, align 8, !tbaa !25
  br label %73

72:                                               ; preds = %56, %50
  call void @ERR_put_error(i32 noundef 20, i32 noundef 0, i32 noundef 135, ptr noundef @.str.10, i32 noundef 132)
  br label %113

73:                                               ; preds = %64
  br label %74

74:                                               ; preds = %73, %42
  %75 = load ptr, ptr %10, align 8, !tbaa !23
  %76 = getelementptr inbounds nuw %struct.conf_value_st, ptr %75, i32 0, i32 2
  %77 = load ptr, ptr %76, align 8, !tbaa !29
  %78 = getelementptr inbounds nuw %struct.conf_value_st, ptr %9, i32 0, i32 2
  store ptr %77, ptr %78, align 8, !tbaa !29
  %79 = call ptr @GENERAL_SUBTREE_new()
  store ptr %79, ptr %13, align 8, !tbaa !19
  %80 = load ptr, ptr %13, align 8, !tbaa !19
  %81 = getelementptr inbounds nuw %struct.GENERAL_SUBTREE_st, ptr %80, i32 0, i32 0
  %82 = load ptr, ptr %81, align 8, !tbaa !30
  %83 = load ptr, ptr %5, align 8, !tbaa !6
  %84 = load ptr, ptr %6, align 8, !tbaa !11
  %85 = call ptr @v2i_GENERAL_NAME_ex(ptr noundef %82, ptr noundef %83, ptr noundef %84, ptr noundef %9, i32 noundef 1)
  %86 = icmp ne ptr %85, null
  br i1 %86, label %88, label %87

87:                                               ; preds = %74
  br label %113

88:                                               ; preds = %74
  %89 = load ptr, ptr %11, align 8, !tbaa !15
  %90 = load ptr, ptr %89, align 8, !tbaa !34
  %91 = icmp ne ptr %90, null
  br i1 %91, label %95, label %92

92:                                               ; preds = %88
  %93 = call ptr @sk_new_null()
  %94 = load ptr, ptr %11, align 8, !tbaa !15
  store ptr %93, ptr %94, align 8, !tbaa !34
  br label %95

95:                                               ; preds = %92, %88
  %96 = load ptr, ptr %11, align 8, !tbaa !15
  %97 = load ptr, ptr %96, align 8, !tbaa !34
  %98 = icmp ne ptr %97, null
  br i1 %98, label %99, label %105

99:                                               ; preds = %95
  %100 = load ptr, ptr %11, align 8, !tbaa !15
  %101 = load ptr, ptr %100, align 8, !tbaa !34
  %102 = load ptr, ptr %13, align 8, !tbaa !19
  %103 = call i64 @sk_push(ptr noundef %101, ptr noundef %102)
  %104 = icmp ne i64 %103, 0
  br i1 %104, label %106, label %105

105:                                              ; preds = %99, %95
  br label %112

106:                                              ; preds = %99
  store ptr null, ptr %13, align 8, !tbaa !19
  br label %107

107:                                              ; preds = %106
  %108 = load i64, ptr %8, align 8, !tbaa !21
  %109 = add i64 %108, 1
  store i64 %109, ptr %8, align 8, !tbaa !21
  br label %20, !llvm.loop !36

110:                                              ; preds = %20
  %111 = load ptr, ptr %12, align 8, !tbaa !17
  store ptr %111, ptr %4, align 8
  store i32 1, ptr %14, align 4
  br label %124

112:                                              ; preds = %105, %18
  call void @ERR_put_error(i32 noundef 20, i32 noundef 0, i32 noundef 65, ptr noundef @.str.10, i32 noundef 149)
  br label %113

113:                                              ; preds = %112, %87, %72
  %114 = load ptr, ptr %12, align 8, !tbaa !17
  %115 = icmp ne ptr %114, null
  br i1 %115, label %116, label %118

116:                                              ; preds = %113
  %117 = load ptr, ptr %12, align 8, !tbaa !17
  call void @NAME_CONSTRAINTS_free(ptr noundef %117)
  br label %118

118:                                              ; preds = %116, %113
  %119 = load ptr, ptr %13, align 8, !tbaa !19
  %120 = icmp ne ptr %119, null
  br i1 %120, label %121, label %123

121:                                              ; preds = %118
  %122 = load ptr, ptr %13, align 8, !tbaa !19
  call void @GENERAL_SUBTREE_free(ptr noundef %122)
  br label %123

123:                                              ; preds = %121, %118
  store ptr null, ptr %4, align 8
  store i32 1, ptr %14, align 4
  br label %124

124:                                              ; preds = %123, %110
  call void @llvm.lifetime.end.p0(i64 8, ptr %13) #4
  call void @llvm.lifetime.end.p0(i64 8, ptr %12) #4
  call void @llvm.lifetime.end.p0(i64 8, ptr %11) #4
  call void @llvm.lifetime.end.p0(i64 8, ptr %10) #4
  call void @llvm.lifetime.end.p0(i64 24, ptr %9) #4
  call void @llvm.lifetime.end.p0(i64 8, ptr %8) #4
  %125 = load ptr, ptr %4, align 8
  ret ptr %125
}