; Function Attrs: nounwind uwtable
define internal ptr @v2i_NAME_CONSTRAINTS(ptr noundef %0, ptr noundef %1, ptr noundef %2) #0 {
  %4 = alloca %struct.conf_value_st, align 8
  call void @llvm.lifetime.start.p0(i64 24, ptr nonnull %4) #6
  %5 = tail call ptr @ASN1_item_new(ptr noundef nonnull @NAME_CONSTRAINTS_it) #6
  %.not = icmp eq ptr %5, null
  br i1 %.not, label %.loopexit44, label %.preheader

.preheader:                                       ; preds = %3
  %6 = tail call i64 @sk_num(ptr noundef %2) #6
  %.not47 = icmp eq i64 %6, 0
  br i1 %.not47, label %.loopexit, label %.lr.ph

.lr.ph:                                           ; preds = %.preheader
  %7 = getelementptr inbounds nuw i8, ptr %4, i64 8
  %8 = getelementptr inbounds nuw i8, ptr %5, i64 8
  %9 = getelementptr inbounds nuw i8, ptr %4, i64 16
  br label %14

10:                                               ; preds = %.thread
  %11 = add nuw i64 %.03046, 1
  %12 = call i64 @sk_num(ptr noundef %2) #6
  %13 = icmp ult i64 %11, %12
  br i1 %13, label %14, label %.loopexit, !llvm.loop !6

14:                                               ; preds = %.lr.ph, %10
  %.03046 = phi i64 [ 0, %.lr.ph ], [ %11, %10 ]
  %15 = call ptr @sk_value(ptr noundef %2, i64 noundef %.03046) #6
  %16 = getelementptr inbounds nuw i8, ptr %15, i64 8
  %17 = load ptr, ptr %16, align 8, !tbaa !8
  %18 = call i32 @strncmp(ptr noundef nonnull dereferenceable(1) %17, ptr noundef nonnull dereferenceable(10) @.str.8, i64 noundef 9) #7
  %.not33 = icmp eq i32 %18, 0
  br i1 %.not33, label %19, label %22

19:                                               ; preds = %14
  %20 = getelementptr inbounds nuw i8, ptr %17, i64 9
  %21 = load i8, ptr %20, align 1, !tbaa !14
  %.not34 = icmp eq i8 %21, 0
  br i1 %.not34, label %22, label %28

22:                                               ; preds = %19, %14
  %23 = call i32 @strncmp(ptr noundef nonnull dereferenceable(1) %17, ptr noundef nonnull dereferenceable(9) @.str.9, i64 noundef 8) #7
  %.not35 = icmp eq i32 %23, 0
  br i1 %.not35, label %24, label %27

24:                                               ; preds = %22
  %25 = getelementptr inbounds nuw i8, ptr %17, i64 8
  %26 = load i8, ptr %25, align 1, !tbaa !14
  %.not36 = icmp eq i8 %26, 0
  br i1 %.not36, label %27, label %28

27:                                               ; preds = %24, %22
  call void @ERR_put_error(i32 noundef 20, i32 noundef 0, i32 noundef 135, ptr noundef nonnull @.str.10, i32 noundef 132) #6
  br label %.loopexit43

28:                                               ; preds = %24, %19
  %.sink = phi i64 [ 10, %19 ], [ 9, %24 ]
  %.028 = phi ptr [ %5, %19 ], [ %8, %24 ]
  %29 = getelementptr inbounds nuw i8, ptr %17, i64 %.sink
  store ptr %29, ptr %7, align 8, !tbaa !8
  %30 = getelementptr inbounds nuw i8, ptr %15, i64 16
  %31 = load ptr, ptr %30, align 8, !tbaa !15
  store ptr %31, ptr %9, align 8, !tbaa !15
  %32 = call ptr @ASN1_item_new(ptr noundef nonnull @GENERAL_SUBTREE_it) #6
  %33 = load ptr, ptr %32, align 8, !tbaa !16
  %34 = call ptr @v2i_GENERAL_NAME_ex(ptr noundef %33, ptr noundef %0, ptr noundef %1, ptr noundef nonnull %4, i32 noundef 1) #6
  %.not37 = icmp eq ptr %34, null
  br i1 %.not37, label %.loopexit43, label %35

35:                                               ; preds = %28
  %36 = load ptr, ptr %.028, align 8, !tbaa !20
  %.not38 = icmp eq ptr %36, null
  br i1 %.not38, label %37, label %.thread

37:                                               ; preds = %35
  %38 = call ptr @sk_new_null() #6
  store ptr %38, ptr %.028, align 8, !tbaa !20
  %.not39 = icmp eq ptr %38, null
  br i1 %.not39, label %.loopexit44, label %.thread

.thread:                                          ; preds = %35, %37
  %39 = phi ptr [ %38, %37 ], [ %36, %35 ]
  %40 = call i64 @sk_push(ptr noundef nonnull %39, ptr noundef nonnull %32) #6
  %.not40 = icmp eq i64 %40, 0
  br i1 %.not40, label %.loopexit44, label %10

.loopexit44:                                      ; preds = %37, %.thread, %3
  %.0 = phi ptr [ null, %3 ], [ %32, %.thread ], [ %32, %37 ]
  call void @ERR_put_error(i32 noundef 20, i32 noundef 0, i32 noundef 65, ptr noundef nonnull @.str.10, i32 noundef 149) #6
  br label %.loopexit43

.loopexit43:                                      ; preds = %28, %.loopexit44, %27
  %.2 = phi ptr [ null, %27 ], [ %.0, %.loopexit44 ], [ %32, %28 ]
  br i1 %.not, label %42, label %41

41:                                               ; preds = %.loopexit43
  call void @ASN1_item_free(ptr noundef nonnull %5, ptr noundef nonnull @NAME_CONSTRAINTS_it) #6
  br label %42

42:                                               ; preds = %41, %.loopexit43
  %.not41 = icmp eq ptr %.2, null
  br i1 %.not41, label %.loopexit, label %43

43:                                               ; preds = %42
  call void @ASN1_item_free(ptr noundef nonnull %.2, ptr noundef nonnull @GENERAL_SUBTREE_it) #6
  br label %.loopexit

.loopexit:                                        ; preds = %10, %.preheader, %42, %43
  %.029 = phi ptr [ null, %43 ], [ null, %42 ], [ %5, %.preheader ], [ %5, %10 ]
  call void @llvm.lifetime.end.p0(i64 24, ptr nonnull %4) #6
  ret ptr %.029
}